target datalayout = "e-m:e-p270:32:32-p271:32:32-p272:64:64-i64:64-i128:128-f80:128-n8:16:32:64-S128"
target triple = "x86_64-unknown-linux-gnu"

%"class.icu_75::UnicodeString" = type { %"class.icu_75::Replaceable", %"union.icu_75::UnicodeString::StackBufferOrFields" }
%"class.icu_75::Replaceable" = type { %"class.icu_75::UObject" }
%"class.icu_75::UObject" = type { ptr }
%"union.icu_75::UnicodeString::StackBufferOrFields" = type { %struct.anon.0, [32 x i8] }
%struct.anon.0 = type { i16, i32, i32, ptr }
%"class.icu_75::ContractionsAndExpansions" = type <{ ptr, ptr, ptr, ptr, i8, i8, [6 x i8], %"class.icu_75::UnicodeSet", %"class.icu_75::UnicodeSet", %"class.icu_75::UnicodeString", ptr, [31 x i64], i32, [4 x i8] }>
%"class.icu_75::UnicodeSet" = type <{ %"class.icu_75::UnicodeFilter", ptr, i32, i32, i8, [7 x i8], ptr, ptr, i32, [4 x i8], ptr, i32, [4 x i8], ptr, ptr, [25 x i32], [4 x i8] }>
%"class.icu_75::UnicodeFilter" = type { %"class.icu_75::UnicodeFunctor", %"class.icu_75::UnicodeMatcher" }
%"class.icu_75::UnicodeFunctor" = type { %"class.icu_75::UObject" }
%"class.icu_75::UnicodeMatcher" = type { ptr }

; Function Attrs: mustprogress nounwind uwtable
define internal noundef signext i8 @_ZL9U_SUCCESS10UErrorCode(i32 noundef %code) #1 {
entry:
  %code.addr = alloca i32, align 4
  store i32 %code, ptr %code.addr, align 4
  %0 = load i32, ptr %code.addr, align 4
  %cmp = icmp sle i32 %0, 0
  %conv = zext i1 %cmp to i8
  ret i8 %conv
}

; Function Attrs: mustprogress uwtable
define linkonce_odr noundef signext i8 @_ZNK6icu_7510UnicodeSet12containsSomeEii(ptr noundef nonnull align 8 dereferenceable(200) %this, i32 noundef %start, i32 noundef %end) #0 comdat align 2 {
entry:
  %this.addr = alloca ptr, align 8
  %start.addr = alloca i32, align 4
  %end.addr = alloca i32, align 4
  store ptr %this, ptr %this.addr, align 8
  store i32 %start, ptr %start.addr, align 4
  store i32 %end, ptr %end.addr, align 4
  %this1 = load ptr, ptr %this.addr, align 8
  %0 = load i32, ptr %start.addr, align 4
  %1 = load i32, ptr %end.addr, align 4
  %call = call noundef signext i8 @_ZNK6icu_7510UnicodeSet12containsNoneEii(ptr noundef nonnull align 8 dereferenceable(200) %this1, i32 noundef %0, i32 noundef %1)
  %tobool = icmp ne i8 %call, 0
  %lnot = xor i1 %tobool, true
  %conv = zext i1 %lnot to i8
  ret i8 %conv
}

; Function Attrs: mustprogress uwtable
define internal noundef signext i8 @_ZN6icu_75L12enumCnERangeEPKviij(ptr noundef %context, i32 noundef %start, i32 noundef %end, i32 noundef %ce32) #0 {
entry:
  %retval = alloca i8, align 1
  %context.addr = alloca ptr, align 8
  %start.addr = alloca i32, align 4
  %end.addr = alloca i32, align 4
  %ce32.addr = alloca i32, align 4
  %cne = alloca ptr, align 8
  %count = alloca i32, align 4
  %i = alloca i32, align 4
  store ptr %context, ptr %context.addr, align 8
  store i32 %start, ptr %start.addr, align 4
  store i32 %end, ptr %end.addr, align 4
  store i32 %ce32, ptr %ce32.addr, align 4
  %0 = load ptr, ptr %context.addr, align 8
  store ptr %0, ptr %cne, align 8
  %1 = load ptr, ptr %cne, align 8
  %checkTailored = getelementptr inbounds %"class.icu_75::ContractionsAndExpansions", ptr %1, i32 0, i32 5
  %2 = load i8, ptr %checkTailored, align 1
  %conv = sext i8 %2 to i32
  %cmp = icmp eq i32 %conv, 0
  br i1 %cmp, label %if.then, label %if.else

if.then:                                          ; preds = %entry
  br label %if.end34

if.else:                                          ; preds = %entry
  %3 = load ptr, ptr %cne, align 8
  %checkTailored1 = getelementptr inbounds %"class.icu_75::ContractionsAndExpansions", ptr %3, i32 0, i32 5
  %4 = load i8, ptr %checkTailored1, align 1
  %conv2 = sext i8 %4 to i32
  %cmp3 = icmp slt i32 %conv2, 0
  br i1 %cmp3, label %if.then4, label %if.else8

if.then4:                                         ; preds = %if.else
  %5 = load i32, ptr %ce32.addr, align 4
  %cmp5 = icmp eq i32 %5, 192
  br i1 %cmp5, label %if.then6, label %if.else7

if.then6:                                         ; preds = %if.then4
  store i8 1, ptr %retval, align 1
  br label %return

if.else7:                                         ; preds = %if.then4
  %6 = load ptr, ptr %cne, align 8
  %tailored = getelementptr inbounds %"class.icu_75::ContractionsAndExpansions", ptr %6, i32 0, i32 7
  %7 = load i32, ptr %start.addr, align 4
  %8 = load i32, ptr %end.addr, align 4
  %call = call noundef nonnull align 8 dereferenceable(200) ptr @_ZN6icu_7510UnicodeSet3addEii(ptr noundef nonnull align 8 dereferenceable(200) %tailored, i32 noundef %7, i32 noundef %8)
  br label %if.end

if.end:                                           ; preds = %if.else7
  br label %if.end33

if.else8:                                         ; preds = %if.else
  %9 = load i32, ptr %start.addr, align 4
  %10 = load i32, ptr %end.addr, align 4
  %cmp9 = icmp eq i32 %9, %10
  br i1 %cmp9, label %if.then10, label %if.else15

if.then10:                                        ; preds = %if.else8
  %11 = load ptr, ptr %cne, align 8
  %tailored11 = getelementptr inbounds %"class.icu_75::ContractionsAndExpansions", ptr %11, i32 0, i32 7
  %12 = load i32, ptr %start.addr, align 4
  %call12 = call noundef signext i8 @_ZNK6icu_7510UnicodeSet8containsEi(ptr noundef nonnull align 8 dereferenceable(200) %tailored11, i32 noundef %12)
  %tobool = icmp ne i8 %call12, 0
  br i1 %tobool, label %if.then13, label %if.end14

if.then13:                                        ; preds = %if.then10
  store i8 1, ptr %retval, align 1
  br label %return

if.end14:                                         ; preds = %if.then10
  br label %if.end32

if.else15:                                        ; preds = %if.else8
  %13 = load ptr, ptr %cne, align 8
  %tailored16 = getelementptr inbounds %"class.icu_75::ContractionsAndExpansions", ptr %13, i32 0, i32 7
  %14 = load i32, ptr %start.addr, align 4
  %15 = load i32, ptr %end.addr, align 4
  %call17 = call noundef signext i8 @_ZNK6icu_7510UnicodeSet12containsSomeEii(ptr noundef nonnull align 8 dereferenceable(200) %tailored16, i32 noundef %14, i32 noundef %15)
  %tobool18 = icmp ne i8 %call17, 0
  br i1 %tobool18, label %if.then19, label %if.end31

if.then19:                                        ; preds = %if.else15
  %16 = load ptr, ptr %cne, align 8
  %ranges = getelementptr inbounds %"class.icu_75::ContractionsAndExpansions", ptr %16, i32 0, i32 8
  %17 = load i32, ptr %start.addr, align 4
  %18 = load i32, ptr %end.addr, align 4
  %call20 = call noundef nonnull align 8 dereferenceable(200) ptr @_ZN6icu_7510UnicodeSet3setEii(ptr noundef nonnull align 8 dereferenceable(200) %ranges, i32 noundef %17, i32 noundef %18)
  %19 = load ptr, ptr %cne, align 8
  %tailored21 = getelementptr inbounds %"class.icu_75::ContractionsAndExpansions", ptr %19, i32 0, i32 7
  %call22 = call noundef nonnull align 8 dereferenceable(200) ptr @_ZN6icu_7510UnicodeSet9removeAllERKS0_(ptr noundef nonnull align 8 dereferenceable(200) %call20, ptr noundef nonnull align 8 dereferenceable(200) %tailored21)
  %20 = load ptr, ptr %cne, align 8
  %ranges23 = getelementptr inbounds %"class.icu_75::ContractionsAndExpansions", ptr %20, i32 0, i32 8
  %call24 = call noundef i32 @_ZNK6icu_7510UnicodeSet13getRangeCountEv(ptr noundef nonnull align 8 dereferenceable(200) %ranges23)
  store i32 %call24, ptr %count, align 4
  store i32 0, ptr %i, align 4
  br label %for.cond

for.cond:                                         ; preds = %for.inc, %if.then19
  %21 = load i32, ptr %i, align 4
  %22 = load i32, ptr %count, align 4
  %cmp25 = icmp slt i32 %21, %22
  br i1 %cmp25, label %for.body, label %for.end

for.body:                                         ; preds = %for.cond
  %23 = load ptr, ptr %cne, align 8
  %24 = load ptr, ptr %cne, align 8
  %ranges26 = getelementptr inbounds %"class.icu_75::ContractionsAndExpansions", ptr %24, i32 0, i32 8
  %25 = load i32, ptr %i, align 4
  %call27 = call noundef i32 @_ZNK6icu_7510UnicodeSet13getRangeStartEi(ptr noundef nonnull align 8 dereferenceable(200) %ranges26, i32 noundef %25)
  %26 = load ptr, ptr %cne, align 8
  %ranges28 = getelementptr inbounds %"class.icu_75::ContractionsAndExpansions", ptr %26, i32 0, i32 8
  %27 = load i32, ptr %i, align 4
  %call29 = call noundef i32 @_ZNK6icu_7510UnicodeSet11getRangeEndEi(ptr noundef nonnull align 8 dereferenceable(200) %ranges28, i32 noundef %27)
  %28 = load i32, ptr %ce32.addr, align 4
  call void @_ZN6icu_7525ContractionsAndExpansions10handleCE32Eiij(ptr noundef nonnull align 8 dereferenceable(764) %23, i32 noundef %call27, i32 noundef %call29, i32 noundef %28)
  br label %for.inc

for.inc:                                          ; preds = %for.body
  %29 = load i32, ptr %i, align 4
  %inc = add nsw i32 %29, 1
  store i32 %inc, ptr %i, align 4
  br label %for.cond, !llvm.loop !13

for.end:                                          ; preds = %for.cond
  %30 = load ptr, ptr %cne, align 8
  %errorCode = getelementptr inbounds %"class.icu_75::ContractionsAndExpansions", ptr %30, i32 0, i32 12
  %31 = load i32, ptr %errorCode, align 8
  %call30 = call noundef signext i8 @_ZL9U_SUCCESS10UErrorCode(i32 noundef %31)
  store i8 %call30, ptr %retval, align 1
  br label %return

if.end31:                                         ; preds = %if.else15
  br label %if.end32

if.end32:                                         ; preds = %if.end31, %if.end14
  br label %if.end33

if.end33:                                         ; preds = %if.end32, %if.end
  br label %if.end34

if.end34:                                         ; preds = %if.end33, %if.then
  %32 = load ptr, ptr %cne, align 8
  %33 = load i32, ptr %start.addr, align 4
  %34 = load i32, ptr %end.addr, align 4
  %35 = load i32, ptr %ce32.addr, align 4
  call void @_ZN6icu_7525ContractionsAndExpansions10handleCE32Eiij(ptr noundef nonnull align 8 dereferenceable(764) %32, i32 noundef %33, i32 noundef %34, i32 noundef %35)
  %36 = load ptr, ptr %cne, align 8
  %errorCode35 = getelementptr inbounds %"class.icu_75::ContractionsAndExpansions", ptr %36, i32 0, i32 12
  %37 = load i32, ptr %errorCode35, align 8
  %call36 = call noundef signext i8 @_ZL9U_SUCCESS10UErrorCode(i32 noundef %37)
  store i8 %call36, ptr %retval, align 1
  br label %return

return:                                           ; preds = %if.end34, %for.end, %if.then13, %if.then6
  %38 = load i8, ptr %retval, align 1
  ret i8 %38
}