; Function Attrs: mustprogress uwtable
define internal noundef signext i8 @_ZN6icu_75L12enumCnERangeEPKviij(ptr noundef %context, i32 noundef %start, i32 noundef %end, i32 noundef %ce32) #0 {
entry:
  %checkTailored = getelementptr inbounds i8, ptr %context, i64 33
  %0 = load i8, ptr %checkTailored, align 1
  %cmp = icmp eq i8 %0, 0
  br i1 %cmp, label %if.end34, label %if.else

if.else:                                          ; preds = %entry
  %cmp3 = icmp slt i8 %0, 0
  br i1 %cmp3, label %if.then4, label %if.else8

if.then4:                                         ; preds = %if.else
  %cmp5 = icmp eq i32 %ce32, 192
  br i1 %cmp5, label %return, label %if.else7

if.else7:                                         ; preds = %if.then4
  %tailored = getelementptr inbounds i8, ptr %context, i64 40
  %call = tail call noundef nonnull align 8 dereferenceable(200) ptr @_ZN6icu_7510UnicodeSet3addEii(ptr noundef nonnull align 8 dereferenceable(200) %tailored, i32 noundef %start, i32 noundef %end)
  br label %if.end34

if.else8:                                         ; preds = %if.else
  %cmp9 = icmp eq i32 %start, %end
  %tailored11 = getelementptr inbounds i8, ptr %context, i64 40
  br i1 %cmp9, label %if.then10, label %if.else15

if.then10:                                        ; preds = %if.else8
  %call12 = tail call noundef signext i8 @_ZNK6icu_7510UnicodeSet8containsEi(ptr noundef nonnull align 8 dereferenceable(200) %tailored11, i32 noundef %start)
  %tobool.not = icmp eq i8 %call12, 0
  br i1 %tobool.not, label %if.end34, label %return

if.else15:                                        ; preds = %if.else8
  %call.i = tail call noundef signext i8 @_ZNK6icu_7510UnicodeSet12containsNoneEii(ptr noundef nonnull align 8 dereferenceable(200) %tailored11, i32 noundef %start, i32 noundef %end)
  %tobool.not.i.not = icmp eq i8 %call.i, 0
  br i1 %tobool.not.i.not, label %if.then19, label %if.end34

if.then19:                                        ; preds = %if.else15
  %ranges = getelementptr inbounds i8, ptr %context, i64 240
  %call20 = tail call noundef nonnull align 8 dereferenceable(200) ptr @_ZN6icu_7510UnicodeSet3setEii(ptr noundef nonnull align 8 dereferenceable(200) %ranges, i32 noundef %start, i32 noundef %end)
  %call22 = tail call noundef nonnull align 8 dereferenceable(200) ptr @_ZN6icu_7510UnicodeSet9removeAllERKS0_(ptr noundef nonnull align 8 dereferenceable(200) %call20, ptr noundef nonnull align 8 dereferenceable(200) %tailored11)
  %call24 = tail call noundef i32 @_ZNK6icu_7510UnicodeSet13getRangeCountEv(ptr noundef nonnull align 8 dereferenceable(200) %ranges)
  %cmp2531 = icmp sgt i32 %call24, 0
  br i1 %cmp2531, label %for.body, label %return.sink.split

for.body:                                         ; preds = %if.then19, %for.body
  %i.032 = phi i32 [ %inc, %for.body ], [ 0, %if.then19 ]
  %call27 = tail call noundef i32 @_ZNK6icu_7510UnicodeSet13getRangeStartEi(ptr noundef nonnull align 8 dereferenceable(200) %ranges, i32 noundef %i.032)
  %call29 = tail call noundef i32 @_ZNK6icu_7510UnicodeSet11getRangeEndEi(ptr noundef nonnull align 8 dereferenceable(200) %ranges, i32 noundef %i.032)
  tail call void @_ZN6icu_7525ContractionsAndExpansions10handleCE32Eiij(ptr noundef nonnull align 8 dereferenceable(764) %context, i32 noundef %call27, i32 noundef %call29, i32 noundef %ce32)
  %inc = add nuw nsw i32 %i.032, 1
  %exitcond.not = icmp eq i32 %inc, %call24
  br i1 %exitcond.not, label %return.sink.split, label %for.body, !llvm.loop !13

if.end34:                                         ; preds = %if.else7, %if.else15, %if.then10, %entry
  tail call void @_ZN6icu_7525ContractionsAndExpansions10handleCE32Eiij(ptr noundef nonnull align 8 dereferenceable(764) %context, i32 noundef %start, i32 noundef %end, i32 noundef %ce32)
  br label %return.sink.split

return.sink.split:                                ; preds = %for.body, %if.then19, %if.end34
  %errorCode35 = getelementptr inbounds i8, ptr %context, i64 760
  %1 = load i32, ptr %errorCode35, align 8
  %cmp.i29 = icmp slt i32 %1, 1
  %2 = zext i1 %cmp.i29 to i8
  br label %return

return:                                           ; preds = %return.sink.split, %if.then10, %if.then4
  %retval.0.shrunk = phi i8 [ 1, %if.then4 ], [ 1, %if.then10 ], [ %2, %return.sink.split ]
  ret i8 %retval.0.shrunk
}